; Function Attrs: mustprogress nounwind uwtable
define hidden void @_ZN13SharedRuntime21restore_native_resultEP14MacroAssembler9BasicTypei(ptr noundef %0, i8 noundef zeroext %1, i32 %2) local_unnamed_addr #0 align 2 {
  %4 = alloca %class.Address, align 8
  %5 = alloca %class.Address, align 8
  %6 = alloca %class.Address, align 8
  %7 = alloca %class.Address, align 8
  %8 = alloca %class.Address, align 8
  %9 = alloca %class.Address, align 8
  %10 = alloca %class.Address, align 16
  %11 = alloca %class.Address, align 16
  %12 = alloca %class.Address, align 16
  switch i8 %1, label %47 [
    i8 6, label %13
    i8 7, label %25
    i8 14, label %53
  ]

13:                                               ; preds = %3
  store <4 x i32> <i32 5, i32 -1, i32 -1, i32 -1>, ptr %10, align 16
  %14 = getelementptr inbounds i8, ptr %10, i64 16
  store i32 -8, ptr %14, align 16
  %15 = getelementptr inbounds i8, ptr %10, i64 20
  store i8 0, ptr %15, align 4
  %16 = getelementptr inbounds i8, ptr %10, i64 24
  store ptr getelementptr inbounds inrange(-16, 72) (i8, ptr @_ZTV10Relocation, i64 16), ptr %16, align 8
  %17 = getelementptr inbounds i8, ptr %10, i64 32
  store ptr null, ptr %17, align 16
  %18 = getelementptr inbounds i8, ptr %10, i64 40
  store i32 0, ptr %18, align 8
  call void @llvm.lifetime.start.p0(i64 64, ptr nonnull %9)
  call void @llvm.memcpy.p0.p0.i64(ptr noundef nonnull align 8 dereferenceable(21) %9, ptr noundef nonnull align 16 dereferenceable(21) %10, i64 21, i1 false)
  %19 = getelementptr inbounds i8, ptr %9, i64 24
  %20 = load ptr, ptr getelementptr inbounds inrange(-32, 56) (i8, ptr @_ZTV10Relocation, i64 32), align 8
  call void %20(ptr noundef nonnull align 8 dereferenceable(20) %16, ptr noundef nonnull align 8 dereferenceable(40) %19) #14
  call void @llvm.lifetime.start.p0(i64 64, ptr nonnull %8)
  call void @llvm.memcpy.p0.p0.i64(ptr noundef nonnull align 8 dereferenceable(21) %8, ptr noundef nonnull align 8 dereferenceable(21) %9, i64 21, i1 false)
  %21 = getelementptr inbounds i8, ptr %8, i64 24
  %22 = load ptr, ptr %19, align 8
  %23 = getelementptr inbounds i8, ptr %22, i64 16
  %24 = load ptr, ptr %23, align 8
  call void %24(ptr noundef nonnull align 8 dereferenceable(20) %19, ptr noundef nonnull align 8 dereferenceable(40) %21) #14
  call void @_ZN9Assembler5movssE11XMMRegister7Address(ptr noundef nonnull align 8 dereferenceable(40) %0, i32 0, ptr noundef nonnull %8) #14
  call void @llvm.lifetime.end.p0(i64 64, ptr nonnull %8)
  call void @llvm.lifetime.end.p0(i64 64, ptr nonnull %9)
  br label %53

25:                                               ; preds = %3
  store <4 x i32> <i32 5, i32 -1, i32 -1, i32 -1>, ptr %11, align 16
  %26 = getelementptr inbounds i8, ptr %11, i64 16
  store i32 -8, ptr %26, align 16
  %27 = getelementptr inbounds i8, ptr %11, i64 20
  store i8 0, ptr %27, align 4
  %28 = getelementptr inbounds i8, ptr %11, i64 24
  store ptr getelementptr inbounds inrange(-16, 72) (i8, ptr @_ZTV10Relocation, i64 16), ptr %28, align 8
  %29 = getelementptr inbounds i8, ptr %11, i64 32
  store ptr null, ptr %29, align 16
  %30 = getelementptr inbounds i8, ptr %11, i64 40
  store i32 0, ptr %30, align 8
  call void @llvm.lifetime.start.p0(i64 64, ptr nonnull %6)
  call void @llvm.lifetime.start.p0(i64 64, ptr nonnull %7)
  %31 = load i8, ptr @UseXmmLoadAndClearUpper, align 1
  %32 = trunc i8 %31 to i1
  br i1 %32, label %33, label %40

33:                                               ; preds = %25
  call void @llvm.memcpy.p0.p0.i64(ptr noundef nonnull align 8 dereferenceable(21) %6, ptr noundef nonnull align 16 dereferenceable(21) %11, i64 21, i1 false)
  %34 = getelementptr inbounds i8, ptr %6, i64 24
  %35 = load ptr, ptr getelementptr inbounds inrange(-32, 56) (i8, ptr @_ZTV10Relocation, i64 32), align 8
  call void %35(ptr noundef nonnull align 8 dereferenceable(20) %28, ptr noundef nonnull align 8 dereferenceable(40) %34) #14
  call void @llvm.lifetime.start.p0(i64 64, ptr nonnull %5)
  call void @llvm.memcpy.p0.p0.i64(ptr noundef nonnull align 8 dereferenceable(21) %5, ptr noundef nonnull align 8 dereferenceable(21) %6, i64 21, i1 false)
  %36 = getelementptr inbounds i8, ptr %5, i64 24
  %37 = load ptr, ptr %34, align 8
  %38 = getelementptr inbounds i8, ptr %37, i64 16
  %39 = load ptr, ptr %38, align 8
  call void %39(ptr noundef nonnull align 8 dereferenceable(20) %34, ptr noundef nonnull align 8 dereferenceable(40) %36) #14
  call void @_ZN9Assembler5movsdE11XMMRegister7Address(ptr noundef nonnull align 8 dereferenceable(40) %0, i32 0, ptr noundef nonnull %5) #14
  call void @llvm.lifetime.end.p0(i64 64, ptr nonnull %5)
  br label %_ZN14MacroAssembler6movdblE11XMMRegister7Address.exit

40:                                               ; preds = %25
  call void @llvm.memcpy.p0.p0.i64(ptr noundef nonnull align 8 dereferenceable(21) %7, ptr noundef nonnull align 16 dereferenceable(21) %11, i64 21, i1 false)
  %41 = getelementptr inbounds i8, ptr %7, i64 24
  %42 = load ptr, ptr getelementptr inbounds inrange(-32, 56) (i8, ptr @_ZTV10Relocation, i64 32), align 8
  call void %42(ptr noundef nonnull align 8 dereferenceable(20) %28, ptr noundef nonnull align 8 dereferenceable(40) %41) #14
  call void @llvm.lifetime.start.p0(i64 64, ptr nonnull %4)
  call void @llvm.memcpy.p0.p0.i64(ptr noundef nonnull align 8 dereferenceable(21) %4, ptr noundef nonnull align 8 dereferenceable(21) %7, i64 21, i1 false)
  %43 = getelementptr inbounds i8, ptr %4, i64 24
  %44 = load ptr, ptr %41, align 8
  %45 = getelementptr inbounds i8, ptr %44, i64 16
  %46 = load ptr, ptr %45, align 8
  call void %46(ptr noundef nonnull align 8 dereferenceable(20) %41, ptr noundef nonnull align 8 dereferenceable(40) %43) #14
  call void @_ZN9Assembler6movlpdE11XMMRegister7Address(ptr noundef nonnull align 8 dereferenceable(40) %0, i32 0, ptr noundef nonnull %4) #14
  call void @llvm.lifetime.end.p0(i64 64, ptr nonnull %4)
  br label %_ZN14MacroAssembler6movdblE11XMMRegister7Address.exit

_ZN14MacroAssembler6movdblE11XMMRegister7Address.exit: ; preds = %33, %40
  call void @llvm.lifetime.end.p0(i64 64, ptr nonnull %6)
  call void @llvm.lifetime.end.p0(i64 64, ptr nonnull %7)
  br label %53

47:                                               ; preds = %3
  store <4 x i32> <i32 5, i32 -1, i32 -1, i32 -1>, ptr %12, align 16
  %48 = getelementptr inbounds i8, ptr %12, i64 16
  store i32 -8, ptr %48, align 16
  %49 = getelementptr inbounds i8, ptr %12, i64 20
  store i8 0, ptr %49, align 4
  %50 = getelementptr inbounds i8, ptr %12, i64 24
  store ptr getelementptr inbounds inrange(-16, 72) (i8, ptr @_ZTV10Relocation, i64 16), ptr %50, align 8
  %51 = getelementptr inbounds i8, ptr %12, i64 32
  store ptr null, ptr %51, align 16
  %52 = getelementptr inbounds i8, ptr %12, i64 40
  store i32 0, ptr %52, align 8
  call void @_ZN14MacroAssembler6movptrE8Register7Address(ptr noundef nonnull align 8 dereferenceable(40) %0, i32 0, ptr noundef nonnull %12) #14
  br label %53

53:                                               ; preds = %3, %47, %_ZN14MacroAssembler6movdblE11XMMRegister7Address.exit, %13
  ret void
}